; Function Attrs: nounwind sspstrong uwtable
define internal noundef i64 @rb_reg_init_copy(i64 noundef returned %0, i64 noundef %1) #2 {
  %.not = icmp eq i64 %0, %1
  br i1 %.not, label %19, label %3

3:                                                ; preds = %2
  %4 = tail call i64 @rb_obj_init_copy(i64 noundef %0, i64 noundef %1) #29
  %5 = inttoptr i64 %1 to ptr
  %6 = getelementptr inbounds nuw i8, ptr %5, i64 16
  %7 = load ptr, ptr %6, align 8, !tbaa !37
  %.not.i = icmp eq ptr %7, null
  br i1 %.not.i, label %16, label %8

8:                                                ; preds = %3
  %9 = getelementptr inbounds nuw i8, ptr %5, i64 24
  %10 = load i64, ptr %9, align 8, !tbaa !52
  %.not3.i = icmp eq i64 %10, 0
  br i1 %.not3.i, label %16, label %11

11:                                               ; preds = %8
  %12 = inttoptr i64 %10 to ptr
  %13 = load i64, ptr %12, align 8, !tbaa !34, !noalias !198
  %14 = and i64 %13, 8192
  %.not.i.i.i.i = icmp eq i64 %14, 0
  br i1 %.not.i.i.i.i, label %rb_reg_check.exit, label %RREGEXP_SRC_PTR.exit.i

RREGEXP_SRC_PTR.exit.i:                           ; preds = %11
  %15 = getelementptr inbounds nuw i8, ptr %12, i64 24
  %.sroa.2.0.copyload.i.i.i = load ptr, ptr %15, align 8
  %.not4.i = icmp eq ptr %.sroa.2.0.copyload.i.i.i, null
  br i1 %.not4.i, label %16, label %rb_reg_check.exit

16:                                               ; preds = %RREGEXP_SRC_PTR.exit.i, %8, %3
  %17 = load i64, ptr @rb_eTypeError, align 8, !tbaa !18
  tail call void (i64, ptr, ...) @rb_raise(i64 noundef %17, ptr noundef nonnull @.str.71) #30
  unreachable

rb_reg_check.exit:                                ; preds = %11, %RREGEXP_SRC_PTR.exit.i
  %18 = tail call fastcc i64 @reg_copy(i64 noundef %0, i64 noundef %1)
  br label %19

19:                                               ; preds = %2, %rb_reg_check.exit
  ret i64 %0
}